; Function Attrs: mustprogress nofree nounwind willreturn memory(read) uwtable
define noundef zeroext i1 @_ZN5osgeo4proj8internal8ci_equalERKNSt7__cxx1112basic_stringIcSt11char_traitsIcESaIcEEEPKc(ptr noundef nonnull readonly align 8 captures(none) dereferenceable(32) %0, ptr noundef readonly captures(none) %1) local_unnamed_addr #2 personality ptr @__gxx_personality_v0 {
  %3 = getelementptr inbounds nuw i8, ptr %0, i64 8
  %4 = load i64, ptr %3, align 8, !tbaa !12
  %5 = tail call i64 @strlen(ptr noundef nonnull dereferenceable(1) %1) #24
  %.not = icmp eq i64 %4, %5
  br i1 %.not, label %6, label %10

6:                                                ; preds = %2
  %7 = load ptr, ptr %0, align 8, !tbaa !9
  %8 = tail call i32 @strncasecmp(ptr noundef readonly %7, ptr noundef nonnull readonly %1, i64 noundef %4) #24
  %9 = icmp eq i32 %8, 0
  br label %10

10:                                               ; preds = %2, %6
  %.0 = phi i1 [ %9, %6 ], [ false, %2 ]
  ret i1 %.0
}